; Function Attrs: mustprogress uwtable
define dso_local noundef zeroext i1 @_ZN16cmListFileParser11ParseStringEPKcS1_(ptr noundef nonnull align 8 dereferenceable(124) %0, ptr noundef %1, ptr noundef %2) local_unnamed_addr #3 align 2 personality ptr @__gxx_personality_v0 {
  %4 = alloca %"class.std::__cxx11::basic_string", align 8
  %5 = alloca %"class.std::allocator", align 1
  %6 = getelementptr inbounds i8, ptr %0, i64 32
  store ptr %2, ptr %6, align 8
  %7 = getelementptr inbounds i8, ptr %0, i64 40
  %8 = load ptr, ptr %7, align 8
  %9 = tail call i32 @cmListFileLexer_SetString(ptr noundef %8, ptr noundef %1)
  %.not = icmp eq i32 %9, 0
  br i1 %.not, label %10, label %21

10:                                               ; preds = %3
  call void @_ZNSaIcEC1Ev(ptr noundef nonnull align 1 dereferenceable(1) %5) #17
  %11 = invoke noundef ptr @_ZNSt7__cxx1112basic_stringIcSt11char_traitsIcESaIcEE13_M_local_dataEv(ptr noundef nonnull align 8 dereferenceable(32) %4)
          to label %.noexc unwind label %17

.noexc:                                           ; preds = %10
  invoke void @_ZNSt7__cxx1112basic_stringIcSt11char_traitsIcESaIcEE12_Alloc_hiderC1EPcRKS3_(ptr noundef nonnull align 8 dereferenceable(8) %4, ptr noundef %11, ptr noundef nonnull align 1 dereferenceable(1) %5)
          to label %.noexc8 unwind label %17

.noexc8:                                          ; preds = %.noexc
  invoke void @_ZNSt7__cxx1112basic_stringIcSt11char_traitsIcESaIcEE12_M_constructIPKcEEvT_S8_St20forward_iterator_tag(ptr noundef nonnull align 8 dereferenceable(32) %4, ptr noundef nonnull @.str.3, ptr noundef nonnull getelementptr inbounds ([41 x i8], ptr @.str.3, i64 0, i64 40))
          to label %_ZNSt7__cxx1112basic_stringIcSt11char_traitsIcESaIcEEC2IS3_EEPKcRKS3_.exit unwind label %12

12:                                               ; preds = %.noexc8
  %13 = landingpad { ptr, i32 }
          cleanup
  call void @_ZNSaIcED2Ev(ptr noundef nonnull align 1 dereferenceable(1) %4) #17
  br label %.body

_ZNSt7__cxx1112basic_stringIcSt11char_traitsIcESaIcEEC2IS3_EEPKcRKS3_.exit: ; preds = %.noexc8
  %14 = getelementptr inbounds i8, ptr %0, i64 24
  %15 = load ptr, ptr %14, align 8
  %16 = getelementptr inbounds i8, ptr %0, i64 8
  invoke void @_ZNK11cmMessenger12IssueMessageE11MessageTypeRKNSt7__cxx1112basic_stringIcSt11char_traitsIcESaIcEEERK19cmListFileBacktrace(ptr noundef nonnull align 8 dereferenceable(64) %15, i32 noundef 2, ptr noundef nonnull align 8 dereferenceable(32) %4, ptr noundef nonnull align 8 dereferenceable(16) %16)
          to label %_ZNK16cmListFileParser18IssueFileOpenErrorERKNSt7__cxx1112basic_stringIcSt11char_traitsIcESaIcEEE.exit unwind label %19

_ZNK16cmListFileParser18IssueFileOpenErrorERKNSt7__cxx1112basic_stringIcSt11char_traitsIcESaIcEEE.exit: ; preds = %_ZNSt7__cxx1112basic_stringIcSt11char_traitsIcESaIcEEC2IS3_EEPKcRKS3_.exit
  call void @_ZNSt7__cxx1112basic_stringIcSt11char_traitsIcESaIcEED1Ev(ptr noundef nonnull align 8 dereferenceable(32) %4) #17
  call void @_ZNSaIcED1Ev(ptr noundef nonnull align 1 dereferenceable(1) %5) #17
  br label %23

17:                                               ; preds = %.noexc, %10
  %18 = landingpad { ptr, i32 }
          cleanup
  br label %.body

19:                                               ; preds = %_ZNSt7__cxx1112basic_stringIcSt11char_traitsIcESaIcEEC2IS3_EEPKcRKS3_.exit
  %20 = landingpad { ptr, i32 }
          cleanup
  call void @_ZNSt7__cxx1112basic_stringIcSt11char_traitsIcESaIcEED1Ev(ptr noundef nonnull align 8 dereferenceable(32) %4) #17
  br label %.body

.body:                                            ; preds = %17, %12, %19
  %.pn = phi { ptr, i32 } [ %20, %19 ], [ %18, %17 ], [ %13, %12 ]
  call void @_ZNSaIcED1Ev(ptr noundef nonnull align 1 dereferenceable(1) %5) #17
  resume { ptr, i32 } %.pn

21:                                               ; preds = %3
  %22 = tail call noundef zeroext i1 @_ZN16cmListFileParser5ParseEv(ptr noundef nonnull align 8 dereferenceable(124) %0)
  br label %23

23:                                               ; preds = %21, %_ZNK16cmListFileParser18IssueFileOpenErrorERKNSt7__cxx1112basic_stringIcSt11char_traitsIcESaIcEEE.exit
  %.06 = phi i1 [ %22, %21 ], [ false, %_ZNK16cmListFileParser18IssueFileOpenErrorERKNSt7__cxx1112basic_stringIcSt11char_traitsIcESaIcEEE.exit ]
  ret i1 %.06
}